target datalayout = "e-m:e-p270:32:32-p271:32:32-p272:64:64-i64:64-i128:128-f80:128-n8:16:32:64-S128"
target triple = "x86_64-pc-linux-gnu"

%class.QByteArray = type { %struct.QArrayDataPointer.1 }
%struct.QArrayDataPointer.1 = type { ptr, ptr, i64 }

@g_ascii_table = external constant ptr, align 8

; Function Attrs: mustprogress nounwind null_pointer_is_valid sspstrong uwtable
define linkonce_odr void @_ZN17QArrayDataPointerIcEC2Ev(ptr noundef align 8 dereferenceable_or_null(24) %0) unnamed_addr #7 comdat align 2 {
  %2 = alloca ptr, align 8
  store ptr %0, ptr %2, align 8
  %3 = load ptr, ptr %2, align 8
  %4 = getelementptr inbounds nuw %struct.QArrayDataPointer.1, ptr %3, i32 0, i32 0
  store ptr null, ptr %4, align 8
  %5 = getelementptr inbounds nuw %struct.QArrayDataPointer.1, ptr %3, i32 0, i32 1
  store ptr null, ptr %5, align 8
  %6 = getelementptr inbounds nuw %struct.QArrayDataPointer.1, ptr %3, i32 0, i32 2
  store i64 0, ptr %6, align 8
  ret void
}

; Function Attrs: inlinehint mustprogress nounwind null_pointer_is_valid sspstrong uwtable
define linkonce_odr void @_ZN10QByteArrayC2Ev(ptr noundef align 8 dereferenceable_or_null(24) %0) unnamed_addr #3 comdat align 2 {
  %2 = alloca ptr, align 8
  store ptr %0, ptr %2, align 8
  %3 = load ptr, ptr %2, align 8
  %4 = getelementptr inbounds nuw %class.QByteArray, ptr %3, i32 0, i32 0
  call void @_ZN17QArrayDataPointerIcEC2Ev(ptr noundef align 8 dereferenceable_or_null(24) %4) #13
  ret void
}

; Function Attrs: mustprogress null_pointer_is_valid sspstrong uwtable
define void @_ZN21ShowPacketBytesDialog21decodeQuotedPrintableEPKhi(ptr dead_on_unwind noalias writable sret(%class.QByteArray) align 8 %0, ptr noundef align 8 dereferenceable_or_null(296) %1, ptr noundef %2, i32 noundef %3) #0 align 2 personality ptr @__gxx_personality_v0 {
  %5 = alloca ptr, align 8
  %6 = alloca ptr, align 8
  %7 = alloca ptr, align 8
  %8 = alloca i32, align 4
  %9 = alloca i1, align 1
  %10 = alloca i32, align 4
  %11 = alloca %class.QByteArray, align 8
  %12 = alloca %class.QByteArray, align 8
  %13 = alloca ptr, align 8
  %14 = alloca i32, align 4
  store ptr %0, ptr %5, align 8
  store ptr %1, ptr %6, align 8
  store ptr %2, ptr %7, align 8
  store i32 %3, ptr %8, align 4
  store i1 false, ptr %9, align 1
  call void @_ZN10QByteArrayC2Ev(ptr noundef align 8 dereferenceable_or_null(24) %0) #13
  call void @llvm.lifetime.start.p0(i64 4, ptr %10) #13
  store i32 0, ptr %10, align 4
  br label %15

15:                                               ; preds = %154, %4
  %16 = load i32, ptr %10, align 4
  %17 = load i32, ptr %8, align 4
  %18 = icmp slt i32 %16, %17
  br i1 %18, label %20, label %19

19:                                               ; preds = %15
  call void @llvm.lifetime.end.p0(i64 4, ptr %10) #13
  br label %158

20:                                               ; preds = %15
  %21 = load ptr, ptr %7, align 8
  %22 = load i32, ptr %10, align 4
  %23 = sext i32 %22 to i64
  %24 = getelementptr i8, ptr %21, i64 %23
  %25 = load i8, ptr %24, align 1
  %26 = zext i8 %25 to i32
  %27 = icmp eq i32 %26, 61
  br i1 %27, label %28, label %145

28:                                               ; preds = %20
  %29 = load i32, ptr %10, align 4
  %30 = add i32 %29, 1
  %31 = load i32, ptr %8, align 4
  %32 = icmp slt i32 %30, %31
  br i1 %32, label %33, label %145

33:                                               ; preds = %28
  %34 = load ptr, ptr %7, align 8
  %35 = load i32, ptr %10, align 4
  %36 = add i32 %35, 1
  %37 = sext i32 %36 to i64
  %38 = getelementptr i8, ptr %34, i64 %37
  %39 = load i8, ptr %38, align 1
  %40 = zext i8 %39 to i32
  %41 = icmp eq i32 %40, 10
  br i1 %41, label %42, label %45

42:                                               ; preds = %33
  %43 = load i32, ptr %10, align 4
  %44 = add i32 %43, 1
  store i32 %44, ptr %10, align 4
  br label %144

45:                                               ; preds = %33
  %46 = load ptr, ptr %7, align 8
  %47 = load i32, ptr %10, align 4
  %48 = add i32 %47, 1
  %49 = sext i32 %48 to i64
  %50 = getelementptr i8, ptr %46, i64 %49
  %51 = load i8, ptr %50, align 1
  %52 = zext i8 %51 to i32
  %53 = icmp eq i32 %52, 13
  br i1 %53, label %54, label %71

54:                                               ; preds = %45
  %55 = load i32, ptr %10, align 4
  %56 = add i32 %55, 2
  %57 = load i32, ptr %8, align 4
  %58 = icmp slt i32 %56, %57
  br i1 %58, label %59, label %71

59:                                               ; preds = %54
  %60 = load ptr, ptr %7, align 8
  %61 = load i32, ptr %10, align 4
  %62 = add i32 %61, 2
  %63 = sext i32 %62 to i64
  %64 = getelementptr i8, ptr %60, i64 %63
  %65 = load i8, ptr %64, align 1
  %66 = zext i8 %65 to i32
  %67 = icmp eq i32 %66, 10
  br i1 %67, label %68, label %71

68:                                               ; preds = %59
  %69 = load i32, ptr %10, align 4
  %70 = add i32 %69, 2
  store i32 %70, ptr %10, align 4
  br label %143

71:                                               ; preds = %59, %54, %45
  %72 = load ptr, ptr @g_ascii_table, align 8
  %73 = load ptr, ptr %7, align 8
  %74 = load i32, ptr %10, align 4
  %75 = add i32 %74, 1
  %76 = sext i32 %75 to i64
  %77 = getelementptr i8, ptr %73, i64 %76
  %78 = load i8, ptr %77, align 1
  %79 = zext i8 %78 to i64
  %80 = getelementptr i16, ptr %72, i64 %79
  %81 = load i16, ptr %80, align 2
  %82 = zext i16 %81 to i32
  %83 = and i32 %82, 1024
  %84 = icmp ne i32 %83, 0
  br i1 %84, label %85, label %130

85:                                               ; preds = %71
  %86 = load i32, ptr %10, align 4
  %87 = add i32 %86, 2
  %88 = load i32, ptr %8, align 4
  %89 = icmp slt i32 %87, %88
  br i1 %89, label %90, label %130

90:                                               ; preds = %85
  %91 = load ptr, ptr @g_ascii_table, align 8
  %92 = load ptr, ptr %7, align 8
  %93 = load i32, ptr %10, align 4
  %94 = add i32 %93, 2
  %95 = sext i32 %94 to i64
  %96 = getelementptr i8, ptr %92, i64 %95
  %97 = load i8, ptr %96, align 1
  %98 = zext i8 %97 to i64
  %99 = getelementptr i16, ptr %91, i64 %98
  %100 = load i16, ptr %99, align 2
  %101 = zext i16 %100 to i32
  %102 = and i32 %101, 1024
  %103 = icmp ne i32 %102, 0
  br i1 %103, label %104, label %130

104:                                              ; preds = %90
  call void @llvm.lifetime.start.p0(i64 24, ptr %11) #13
  call void @llvm.lifetime.start.p0(i64 24, ptr %12) #13
  %105 = load ptr, ptr %7, align 8
  %106 = load i32, ptr %10, align 4
  %107 = add i32 %106, 1
  %108 = sext i32 %107 to i64
  %109 = getelementptr i8, ptr %105, i64 %108
  invoke void @_ZN10QByteArrayC1EPKcx(ptr noundef align 8 dereferenceable_or_null(24) %12, ptr noundef %109, i64 noundef 2)
          to label %110 unwind label %116

110:                                              ; preds = %104
  invoke void @_ZN10QByteArray7fromHexERKS_(ptr dead_on_unwind writable sret(%class.QByteArray) align 8 %11, ptr noundef align 8 dereferenceable(24) %12)
          to label %111 unwind label %120

111:                                              ; preds = %110
  %112 = invoke noundef align 8 dereferenceable(24) ptr @_ZN10QByteArray6appendERKS_(ptr noundef align 8 dereferenceable_or_null(24) %0, ptr noundef align 8 dereferenceable(24) %11)
          to label %113 unwind label %124

113:                                              ; preds = %111
  call void @_ZN10QByteArrayD2Ev(ptr noundef align 8 dereferenceable_or_null(24) %11) #13
  call void @_ZN10QByteArrayD2Ev(ptr noundef align 8 dereferenceable_or_null(24) %12) #13
  call void @llvm.lifetime.end.p0(i64 24, ptr %12) #13
  call void @llvm.lifetime.end.p0(i64 24, ptr %11) #13
  %114 = load i32, ptr %10, align 4
  %115 = add i32 %114, 2
  store i32 %115, ptr %10, align 4
  br label %142

116:                                              ; preds = %104
  %117 = landingpad { ptr, i32 }
          cleanup
  %118 = extractvalue { ptr, i32 } %117, 0
  store ptr %118, ptr %13, align 8
  %119 = extractvalue { ptr, i32 } %117, 1
  store i32 %119, ptr %14, align 4
  br label %129

120:                                              ; preds = %110
  %121 = landingpad { ptr, i32 }
          cleanup
  %122 = extractvalue { ptr, i32 } %121, 0
  store ptr %122, ptr %13, align 8
  %123 = extractvalue { ptr, i32 } %121, 1
  store i32 %123, ptr %14, align 4
  br label %128

124:                                              ; preds = %111
  %125 = landingpad { ptr, i32 }
          cleanup
  %126 = extractvalue { ptr, i32 } %125, 0
  store ptr %126, ptr %13, align 8
  %127 = extractvalue { ptr, i32 } %125, 1
  store i32 %127, ptr %14, align 4
  call void @_ZN10QByteArrayD2Ev(ptr noundef align 8 dereferenceable_or_null(24) %11) #13
  br label %128

128:                                              ; preds = %124, %120
  call void @_ZN10QByteArrayD2Ev(ptr noundef align 8 dereferenceable_or_null(24) %12) #13
  br label %129

129:                                              ; preds = %128, %116
  call void @llvm.lifetime.end.p0(i64 24, ptr %12) #13
  call void @llvm.lifetime.end.p0(i64 24, ptr %11) #13
  br label %157

130:                                              ; preds = %90, %85, %71
  %131 = load ptr, ptr %7, align 8
  %132 = load i32, ptr %10, align 4
  %133 = sext i32 %132 to i64
  %134 = getelementptr i8, ptr %131, i64 %133
  %135 = load i8, ptr %134, align 1
  %136 = invoke noundef align 8 dereferenceable(24) ptr @_ZN10QByteArray6appendEc(ptr noundef align 8 dereferenceable_or_null(24) %0, i8 noundef signext %135)
          to label %137 unwind label %138

137:                                              ; preds = %130
  br label %142

138:                                              ; preds = %145, %130
  %139 = landingpad { ptr, i32 }
          cleanup
  %140 = extractvalue { ptr, i32 } %139, 0
  store ptr %140, ptr %13, align 8
  %141 = extractvalue { ptr, i32 } %139, 1
  store i32 %141, ptr %14, align 4
  br label %157

142:                                              ; preds = %137, %113
  br label %143

143:                                              ; preds = %142, %68
  br label %144

144:                                              ; preds = %143, %42
  br label %153

145:                                              ; preds = %28, %20
  %146 = load ptr, ptr %7, align 8
  %147 = load i32, ptr %10, align 4
  %148 = sext i32 %147 to i64
  %149 = getelementptr i8, ptr %146, i64 %148
  %150 = load i8, ptr %149, align 1
  %151 = invoke noundef align 8 dereferenceable(24) ptr @_ZN10QByteArray6appendEc(ptr noundef align 8 dereferenceable_or_null(24) %0, i8 noundef signext %150)
          to label %152 unwind label %138

152:                                              ; preds = %145
  br label %153

153:                                              ; preds = %152, %144
  br label %154

154:                                              ; preds = %153
  %155 = load i32, ptr %10, align 4
  %156 = add i32 %155, 1
  store i32 %156, ptr %10, align 4
  br label %15, !llvm.loop !22

157:                                              ; preds = %138, %129
  call void @llvm.lifetime.end.p0(i64 4, ptr %10) #13
  call void @_ZN10QByteArrayD2Ev(ptr noundef align 8 dereferenceable_or_null(24) %0) #13
  br label %162

158:                                              ; preds = %19
  store i1 true, ptr %9, align 1
  %159 = load i1, ptr %9, align 1
  br i1 %159, label %161, label %160

160:                                              ; preds = %158
  call void @_ZN10QByteArrayD2Ev(ptr noundef align 8 dereferenceable_or_null(24) %0) #13
  br label %161

161:                                              ; preds = %160, %158
  ret void

162:                                              ; preds = %157
  %163 = load ptr, ptr %13, align 8
  %164 = load i32, ptr %14, align 4
  %165 = insertvalue { ptr, i32 } poison, ptr %163, 0
  %166 = insertvalue { ptr, i32 } %165, i32 %164, 1
  resume { ptr, i32 } %166
}