; Function Attrs: mustprogress null_pointer_is_valid sspstrong uwtable
define void @_ZN21ShowPacketBytesDialog21decodeQuotedPrintableEPKhi(ptr dead_on_unwind noalias writable sret(%class.QByteArray) align 8 initializes((0, 24)) %0, ptr readnone align 8 captures(none) %1, ptr noundef %2, i32 noundef %3) local_unnamed_addr #0 align 2 personality ptr @__gxx_personality_v0 {
  %5 = alloca %class.QByteArray, align 8
  %6 = alloca %class.QByteArray, align 8
  tail call void @llvm.memset.p0.i64(ptr noundef align 8 dereferenceable(24) dereferenceable_or_null(24) %0, i8 0, i64 24, i1 false)
  %7 = icmp sgt i32 %3, 0
  br i1 %7, label %.lr.ph, label %._crit_edge

.lr.ph:                                           ; preds = %4
  %8 = load ptr, ptr @g_ascii_table, align 8
  br label %9

9:                                                ; preds = %.lr.ph, %76
  %.03558 = phi i32 [ 0, %.lr.ph ], [ %77, %76 ]
  %10 = sext i32 %.03558 to i64
  %11 = getelementptr i8, ptr %2, i64 %10
  %12 = load i8, ptr %11, align 1
  %13 = icmp eq i8 %12, 61
  br i1 %13, label %14, label %.invoke

14:                                               ; preds = %9
  %15 = add nsw i32 %.03558, 1
  %16 = icmp slt i32 %15, %3
  br i1 %16, label %17, label %.invoke

17:                                               ; preds = %14
  %18 = sext i32 %15 to i64
  %19 = getelementptr i8, ptr %2, i64 %18
  %20 = load i8, ptr %19, align 1
  switch i8 %20, label %29 [
    i8 10, label %76
    i8 13, label %21
  ]

21:                                               ; preds = %17
  %22 = add i32 %.03558, 2
  %23 = icmp slt i32 %22, %3
  br i1 %23, label %24, label %29

24:                                               ; preds = %21
  %25 = sext i32 %22 to i64
  %26 = getelementptr i8, ptr %2, i64 %25
  %27 = load i8, ptr %26, align 1
  %28 = icmp eq i8 %27, 10
  br i1 %28, label %76, label %29

29:                                               ; preds = %17, %24, %21
  %30 = zext i8 %20 to i64
  %31 = getelementptr i16, ptr %8, i64 %30
  %32 = load i16, ptr %31, align 2
  %33 = and i16 %32, 1024
  %.not = icmp eq i16 %33, 0
  br i1 %.not, label %.invoke, label %34

34:                                               ; preds = %29
  %35 = add i32 %.03558, 2
  %36 = icmp slt i32 %35, %3
  br i1 %36, label %37, label %.invoke

37:                                               ; preds = %34
  %38 = sext i32 %35 to i64
  %39 = getelementptr i8, ptr %2, i64 %38
  %40 = load i8, ptr %39, align 1
  %41 = zext i8 %40 to i64
  %42 = getelementptr i16, ptr %8, i64 %41
  %43 = load i16, ptr %42, align 2
  %44 = and i16 %43, 1024
  %.not42 = icmp eq i16 %44, 0
  br i1 %.not42, label %.invoke, label %45

45:                                               ; preds = %37
  call void @llvm.lifetime.start.p0(i64 24, ptr nonnull %5) #28
  call void @llvm.lifetime.start.p0(i64 24, ptr nonnull %6) #28
  invoke void @_ZN10QByteArrayC1EPKcx(ptr noundef nonnull align 8 dereferenceable_or_null(24) %6, ptr noundef %19, i64 noundef 2)
          to label %46 unwind label %58

46:                                               ; preds = %45
  invoke void @_ZN10QByteArray7fromHexERKS_(ptr dead_on_unwind nonnull writable sret(%class.QByteArray) align 8 %5, ptr noundef nonnull align 8 dereferenceable(24) %6)
          to label %47 unwind label %60

47:                                               ; preds = %46
  %48 = invoke noundef align 8 dereferenceable(24) ptr @_ZN10QByteArray6appendERKS_(ptr noundef align 8 dereferenceable_or_null(24) %0, ptr noundef nonnull align 8 dereferenceable(24) %5)
          to label %49 unwind label %62

49:                                               ; preds = %47
  %50 = load ptr, ptr %5, align 8
  %.not.i.i.i = icmp eq ptr %50, null
  br i1 %.not.i.i.i, label %_ZN10QByteArrayD2Ev.exit, label %_ZN17QArrayDataPointerIcE5derefEv.exit.i.i

_ZN17QArrayDataPointerIcE5derefEv.exit.i.i:       ; preds = %49
  %51 = atomicrmw sub ptr %50, i32 1 seq_cst, align 4
  %.not.i.i = icmp eq i32 %51, 1
  br i1 %.not.i.i, label %52, label %_ZN10QByteArrayD2Ev.exit

52:                                               ; preds = %_ZN17QArrayDataPointerIcE5derefEv.exit.i.i
  %53 = load ptr, ptr %5, align 8
  call void @_ZN10QArrayData10deallocateEPS_xx(ptr noundef %53, i64 noundef 1, i64 noundef 8) #28
  br label %_ZN10QByteArrayD2Ev.exit

_ZN10QByteArrayD2Ev.exit:                         ; preds = %49, %_ZN17QArrayDataPointerIcE5derefEv.exit.i.i, %52
  %54 = load ptr, ptr %6, align 8
  %.not.i.i.i46 = icmp eq ptr %54, null
  br i1 %.not.i.i.i46, label %_ZN10QByteArrayD2Ev.exit49, label %_ZN17QArrayDataPointerIcE5derefEv.exit.i.i47

_ZN17QArrayDataPointerIcE5derefEv.exit.i.i47:     ; preds = %_ZN10QByteArrayD2Ev.exit
  %55 = atomicrmw sub ptr %54, i32 1 seq_cst, align 4
  %.not.i.i48 = icmp eq i32 %55, 1
  br i1 %.not.i.i48, label %56, label %_ZN10QByteArrayD2Ev.exit49

56:                                               ; preds = %_ZN17QArrayDataPointerIcE5derefEv.exit.i.i47
  %57 = load ptr, ptr %6, align 8
  call void @_ZN10QArrayData10deallocateEPS_xx(ptr noundef %57, i64 noundef 1, i64 noundef 8) #28
  br label %_ZN10QByteArrayD2Ev.exit49

_ZN10QByteArrayD2Ev.exit49:                       ; preds = %_ZN10QByteArrayD2Ev.exit, %_ZN17QArrayDataPointerIcE5derefEv.exit.i.i47, %56
  call void @llvm.lifetime.end.p0(i64 24, ptr nonnull %6) #28
  call void @llvm.lifetime.end.p0(i64 24, ptr nonnull %5) #28
  br label %76

58:                                               ; preds = %45
  %59 = landingpad { ptr, i32 }
          cleanup
  br label %_ZN10QByteArrayD2Ev.exit57

60:                                               ; preds = %46
  %61 = landingpad { ptr, i32 }
          cleanup
  br label %_ZN10QByteArrayD2Ev.exit53

62:                                               ; preds = %47
  %63 = landingpad { ptr, i32 }
          cleanup
  %64 = load ptr, ptr %5, align 8
  %.not.i.i.i50 = icmp eq ptr %64, null
  br i1 %.not.i.i.i50, label %_ZN10QByteArrayD2Ev.exit53, label %_ZN17QArrayDataPointerIcE5derefEv.exit.i.i51

_ZN17QArrayDataPointerIcE5derefEv.exit.i.i51:     ; preds = %62
  %65 = atomicrmw sub ptr %64, i32 1 seq_cst, align 4
  %.not.i.i52 = icmp eq i32 %65, 1
  br i1 %.not.i.i52, label %66, label %_ZN10QByteArrayD2Ev.exit53

66:                                               ; preds = %_ZN17QArrayDataPointerIcE5derefEv.exit.i.i51
  %67 = load ptr, ptr %5, align 8
  call void @_ZN10QArrayData10deallocateEPS_xx(ptr noundef %67, i64 noundef 1, i64 noundef 8) #28
  br label %_ZN10QByteArrayD2Ev.exit53

_ZN10QByteArrayD2Ev.exit53:                       ; preds = %66, %_ZN17QArrayDataPointerIcE5derefEv.exit.i.i51, %62, %60
  %.pn = phi { ptr, i32 } [ %61, %60 ], [ %63, %62 ], [ %63, %_ZN17QArrayDataPointerIcE5derefEv.exit.i.i51 ], [ %63, %66 ]
  %68 = load ptr, ptr %6, align 8
  %.not.i.i.i54 = icmp eq ptr %68, null
  br i1 %.not.i.i.i54, label %_ZN10QByteArrayD2Ev.exit57, label %_ZN17QArrayDataPointerIcE5derefEv.exit.i.i55

_ZN17QArrayDataPointerIcE5derefEv.exit.i.i55:     ; preds = %_ZN10QByteArrayD2Ev.exit53
  %69 = atomicrmw sub ptr %68, i32 1 seq_cst, align 4
  %.not.i.i56 = icmp eq i32 %69, 1
  br i1 %.not.i.i56, label %70, label %_ZN10QByteArrayD2Ev.exit57

70:                                               ; preds = %_ZN17QArrayDataPointerIcE5derefEv.exit.i.i55
  %71 = load ptr, ptr %6, align 8
  call void @_ZN10QArrayData10deallocateEPS_xx(ptr noundef %71, i64 noundef 1, i64 noundef 8) #28
  br label %_ZN10QByteArrayD2Ev.exit57

_ZN10QByteArrayD2Ev.exit57:                       ; preds = %70, %_ZN17QArrayDataPointerIcE5derefEv.exit.i.i55, %_ZN10QByteArrayD2Ev.exit53, %58
  %.pn.pn = phi { ptr, i32 } [ %59, %58 ], [ %.pn, %_ZN10QByteArrayD2Ev.exit53 ], [ %.pn, %_ZN17QArrayDataPointerIcE5derefEv.exit.i.i55 ], [ %.pn, %70 ]
  call void @llvm.lifetime.end.p0(i64 24, ptr nonnull %6) #28
  call void @llvm.lifetime.end.p0(i64 24, ptr nonnull %5) #28
  br label %79

72:                                               ; preds = %.invoke
  %73 = landingpad { ptr, i32 }
          cleanup
  br label %79

.invoke:                                          ; preds = %29, %34, %37, %9, %14
  %74 = phi i8 [ %12, %14 ], [ %12, %9 ], [ 61, %37 ], [ 61, %34 ], [ 61, %29 ]
  %75 = invoke noundef align 8 dereferenceable(24) ptr @_ZN10QByteArray6appendEc(ptr noundef align 8 dereferenceable_or_null(24) %0, i8 noundef signext %74)
          to label %76 unwind label %72

76:                                               ; preds = %.invoke, %24, %17, %_ZN10QByteArrayD2Ev.exit49
  %.136 = phi i32 [ %35, %_ZN10QByteArrayD2Ev.exit49 ], [ %15, %17 ], [ %22, %24 ], [ %.03558, %.invoke ]
  %77 = add i32 %.136, 1
  %78 = icmp slt i32 %77, %3
  br i1 %78, label %9, label %._crit_edge, !llvm.loop !82

79:                                               ; preds = %72, %_ZN10QByteArrayD2Ev.exit57
  %.pn.pn.pn = phi { ptr, i32 } [ %.pn.pn, %_ZN10QByteArrayD2Ev.exit57 ], [ %73, %72 ]
  call void @_ZN10QByteArrayD2Ev(ptr noundef align 8 dereferenceable_or_null(24) %0) #28
  resume { ptr, i32 } %.pn.pn.pn

._crit_edge:                                      ; preds = %76, %4
  ret void
}